; ModuleID = '30/1794.c'
source_filename = "30/1794.c"
target datalayout = "e-m:e-p270:32:32-p271:32:32-p272:64:64-i64:64-f80:128-n8:16:32:64-S128"
target triple = "x86_64-pc-linux-gnu"

@.str = private unnamed_addr constant [3 x i8] c"%d\00", align 1

; Function Attrs: noinline nounwind uwtable
define dso_local i32 @main(i32 %0, i8** %1) #0 {
  %3 = alloca i32, align 4
  %4 = alloca i32, align 4
  %5 = alloca i8**, align 8
  %6 = alloca i32, align 4
  %7 = alloca i32, align 4
  %8 = alloca i32, align 4
  store i32 0, i32* %3, align 4
  store i32 %0, i32* %4, align 4
  store i8** %1, i8*** %5, align 8
  %9 = call i32 (i8*, ...) @__isoc99_scanf(i8* getelementptr inbounds ([3 x i8], [3 x i8]* @.str, i64 0, i64 0), i32* %8)
  store i32 0, i32* %7, align 4
  store i32 1, i32* %6, align 4
  br label %10

10:                                               ; preds = %39, %2
  %11 = load i32, i32* %6, align 4
  %12 = load i32, i32* %8, align 4
  %13 = add nsw i32 %12, 1
  %14 = icmp slt i32 %11, %13
  br i1 %14, label %15, label %42

15:                                               ; preds = %10
  %16 = load i32, i32* %6, align 4
  %17 = srem i32 %16, 7
  %18 = icmp eq i32 %17, 0
  br i1 %18, label %19, label %20

19:                                               ; preds = %15
  br label %39

20:                                               ; preds = %15
  %21 = load i32, i32* %6, align 4
  %22 = srem i32 %21, 10
  %23 = icmp eq i32 %22, 7
  br i1 %23, label %24, label %25

24:                                               ; preds = %20
  br label %39

25:                                               ; preds = %20
  %26 = load i32, i32* %6, align 4
  %27 = sdiv i32 %26, 10
  %28 = icmp eq i32 %27, 7
  br i1 %28, label %29, label %30

29:                                               ; preds = %25
  br label %39

30:                                               ; preds = %25
  %31 = load i32, i32* %7, align 4
  %32 = load i32, i32* %6, align 4
  %33 = load i32, i32* %6, align 4
  %34 = mul nsw i32 %32, %33
  %35 = add nsw i32 %31, %34
  store i32 %35, i32* %7, align 4
  br label %36

36:                                               ; preds = %30
  br label %37

37:                                               ; preds = %36
  br label %38

38:                                               ; preds = %37
  br label %39

39:                                               ; preds = %38, %29, %24, %19
  %40 = load i32, i32* %6, align 4
  %41 = add nsw i32 %40, 1
  store i32 %41, i32* %6, align 4
  br label %10

42:                                               ; preds = %10
  %43 = load i32, i32* %7, align 4
  %44 = call i32 (i8*, ...) @printf(i8* getelementptr inbounds ([3 x i8], [3 x i8]* @.str, i64 0, i64 0), i32 %43)
  ret i32 0
}

declare dso_local i32 @__isoc99_scanf(i8*, ...) #1

declare dso_local i32 @printf(i8*, ...) #1


!llvm.module.flags = !{!0}
!llvm.ident = !{!1}

!0 = !{i32 1, !"wchar_size", i32 4}
!1 = !{!"clang version 10.0.0-4ubuntu1 "}
